target datalayout = "e-m:e-p270:32:32-p271:32:32-p272:64:64-i64:64-i128:128-f80:128-n8:16:32:64-S128"
target triple = "x86_64-pc-linux-gnu"

%struct.WOLFSSL = type <{ ptr, ptr, ptr, ptr, [48 x i8], [48 x i8], ptr, ptr, ptr, ptr, ptr, ptr, ptr, ptr, ptr, ptr, ptr, ptr, ptr, i32, [4 x i8], %struct.WOLFSSL_CIPHER, ptr, %struct.Ciphers, %struct.Ciphers, [8 x i8], %struct.Buffers, ptr, ptr, %struct.WOLFSSL_ALERT_HISTORY, %struct.WOLFSSL_ALERT, i32, i32, i32, i32, i32, i32, i32, i16, [2 x i8], i32, i8, %struct.RecordLayerHeader, %struct.MsgsReceived, %struct.ProtocolVersion, %struct.ProtocolVersion, %struct.CipherSpecs, [2 x i8], %struct.Keys, %struct.Options, ptr, i8, i8, i16, [10 x i16], i8, i8, i16, i16, [38 x i8], i32, i32, [4 x i8], ptr, i8, i8, [6 x i8], ptr, ptr, i16, i8, i8, i32, i8, [3 x i8], i32, %struct.OneTimeAuth, ptr }>
%struct.WOLFSSL_CIPHER = type { i8, i8, ptr }
%struct.Ciphers = type { ptr, ptr, ptr, ptr, i8, i8 }
%struct.Buffers = type { %struct.bufferStatic, %struct.bufferStatic, %struct.WOLFSSL_BUFFER_INFO, %struct.WOLFSSL_BUFFER_INFO, %struct.WOLFSSL_BUFFER_INFO, %struct.WOLFSSL_BUFFER_INFO, i32, i32, i8, i8, i8, i8, %struct.WOLFSSL_BUFFER_INFO, %struct.WOLFSSL_BUFFER_INFO, %struct.WOLFSSL_BUFFER_INFO, %struct.WOLFSSL_BUFFER_INFO, ptr, ptr, ptr, i8, i8, i32, i32, ptr, i32, [1 x ptr] }
%struct.bufferStatic = type { [5 x i8], ptr, i32, i32, i32, i8, i8 }
%struct.WOLFSSL_BUFFER_INFO = type { ptr, i32 }
%struct.WOLFSSL_ALERT_HISTORY = type { %struct.WOLFSSL_ALERT, %struct.WOLFSSL_ALERT }
%struct.WOLFSSL_ALERT = type { i32, i32 }
%struct.RecordLayerHeader = type { i8, i8, i8, [2 x i8] }
%struct.MsgsReceived = type { i32 }
%struct.ProtocolVersion = type { i8, i8 }
%struct.CipherSpecs = type { i16, i16, i16, i16, i8, i8, i8, i8, i8, i8, i8, i8 }
%struct.Keys = type { [64 x i8], [64 x i8], [32 x i8], [32 x i8], [16 x i8], [16 x i8], [8 x i8], [12 x i8], [12 x i8], i32, i32, i32, i32, i32, i32, i8, i8, i8, i8 }
%struct.Options = type { i64, i64, i8, i8, i8, i8, i8, i8, i8, i8, i8, i8, i8, i8, i8, i8, i8, i8, i8, i8, i8, i8, i8, i16, i16, i16, i16, i16, i8 }
%struct.OneTimeAuth = type { ptr, i8 }

; Function Attrs: nounwind uwtable
define void @ShrinkOutputBuffer(ptr noundef %0) #0 {
  %2 = alloca ptr, align 8
  %3 = alloca ptr, align 8
  store ptr %0, ptr %2, align 8, !tbaa !3
  br label %4

4:                                                ; preds = %1
  br label %5

5:                                                ; preds = %4
  br label %6

6:                                                ; preds = %5
  call void @llvm.lifetime.start.p0(i64 8, ptr %3) #9
  %7 = load ptr, ptr %2, align 8, !tbaa !3
  %8 = getelementptr inbounds nuw %struct.WOLFSSL, ptr %7, i32 0, i32 26
  %9 = getelementptr inbounds nuw %struct.Buffers, ptr %8, i32 0, i32 1
  %10 = getelementptr inbounds nuw %struct.bufferStatic, ptr %9, i32 0, i32 1
  %11 = load ptr, ptr %10, align 8, !tbaa !210
  %12 = load ptr, ptr %2, align 8, !tbaa !3
  %13 = getelementptr inbounds nuw %struct.WOLFSSL, ptr %12, i32 0, i32 26
  %14 = getelementptr inbounds nuw %struct.Buffers, ptr %13, i32 0, i32 1
  %15 = getelementptr inbounds nuw %struct.bufferStatic, ptr %14, i32 0, i32 6
  %16 = load i8, ptr %15, align 1, !tbaa !267
  %17 = zext i8 %16 to i32
  %18 = sext i32 %17 to i64
  %19 = sub i64 0, %18
  %20 = getelementptr inbounds i8, ptr %11, i64 %19
  store ptr %20, ptr %3, align 8, !tbaa !59
  %21 = load ptr, ptr %3, align 8, !tbaa !59
  %22 = icmp ne ptr %21, null
  br i1 %22, label %23, label %25

23:                                               ; preds = %6
  %24 = load ptr, ptr %3, align 8, !tbaa !59
  call void @wolfSSL_Free(ptr noundef %24)
  br label %25

25:                                               ; preds = %23, %6
  call void @llvm.lifetime.end.p0(i64 8, ptr %3) #9
  br label %26

26:                                               ; preds = %25
  %27 = load ptr, ptr %2, align 8, !tbaa !3
  %28 = getelementptr inbounds nuw %struct.WOLFSSL, ptr %27, i32 0, i32 26
  %29 = getelementptr inbounds nuw %struct.Buffers, ptr %28, i32 0, i32 1
  %30 = getelementptr inbounds nuw %struct.bufferStatic, ptr %29, i32 0, i32 0
  %31 = getelementptr inbounds [5 x i8], ptr %30, i64 0, i64 0
  %32 = load ptr, ptr %2, align 8, !tbaa !3
  %33 = getelementptr inbounds nuw %struct.WOLFSSL, ptr %32, i32 0, i32 26
  %34 = getelementptr inbounds nuw %struct.Buffers, ptr %33, i32 0, i32 1
  %35 = getelementptr inbounds nuw %struct.bufferStatic, ptr %34, i32 0, i32 1
  store ptr %31, ptr %35, align 8, !tbaa !210
  %36 = load ptr, ptr %2, align 8, !tbaa !3
  %37 = getelementptr inbounds nuw %struct.WOLFSSL, ptr %36, i32 0, i32 26
  %38 = getelementptr inbounds nuw %struct.Buffers, ptr %37, i32 0, i32 1
  %39 = getelementptr inbounds nuw %struct.bufferStatic, ptr %38, i32 0, i32 4
  store i32 5, ptr %39, align 8, !tbaa !211
  %40 = load ptr, ptr %2, align 8, !tbaa !3
  %41 = getelementptr inbounds nuw %struct.WOLFSSL, ptr %40, i32 0, i32 26
  %42 = getelementptr inbounds nuw %struct.Buffers, ptr %41, i32 0, i32 1
  %43 = getelementptr inbounds nuw %struct.bufferStatic, ptr %42, i32 0, i32 5
  store i8 0, ptr %43, align 4, !tbaa !258
  %44 = load ptr, ptr %2, align 8, !tbaa !3
  %45 = getelementptr inbounds nuw %struct.WOLFSSL, ptr %44, i32 0, i32 26
  %46 = getelementptr inbounds nuw %struct.Buffers, ptr %45, i32 0, i32 1
  %47 = getelementptr inbounds nuw %struct.bufferStatic, ptr %46, i32 0, i32 6
  store i8 0, ptr %47, align 1, !tbaa !267
  ret void
}