; Function Attrs: nounwind uwtable
define void @ShrinkOutputBuffer(ptr noundef %0) local_unnamed_addr #5 {
  %2 = getelementptr inbounds nuw i8, ptr %0, i64 392
  %3 = load ptr, ptr %2, align 8, !tbaa !173
  %4 = getelementptr inbounds nuw i8, ptr %0, i64 413
  %.not = icmp eq ptr %3, null
  br i1 %.not, label %10, label %5

5:                                                ; preds = %1
  %6 = load i8, ptr %4, align 1, !tbaa !219
  %7 = zext i8 %6 to i64
  %8 = sub nsw i64 0, %7
  %9 = getelementptr inbounds i8, ptr %3, i64 %8
  tail call void @wolfSSL_Free(ptr noundef nonnull %9) #26
  br label %10

10:                                               ; preds = %5, %1
  %11 = getelementptr inbounds nuw i8, ptr %0, i64 384
  store ptr %11, ptr %2, align 8, !tbaa !173
  %12 = getelementptr inbounds nuw i8, ptr %0, i64 408
  store i32 5, ptr %12, align 8, !tbaa !174
  %13 = getelementptr inbounds nuw i8, ptr %0, i64 412
  store i8 0, ptr %13, align 4, !tbaa !218
  store i8 0, ptr %4, align 1, !tbaa !219
  ret void
}